	.file	"main.cpp"
	.intel_syntax noprefix
 # GNU C++17 (GCC) version 13.2.0 (x86_64-w64-mingw32)
 #	compiled by GNU C version 13.2.0, GMP version 6.2.1, MPFR version 4.1.0, MPC version 1.2.1, isl version none
 # GGC heuristics: --param ggc-min-expand=100 --param ggc-min-heapsize=131072
 # options passed: -masm=intel -mtune=generic -march=x86-64 -g -O0 -std=c++17
	.text
.Ltext0:
	.cfi_sections	.debug_frame
	.file 0 "C:/assembly/lab9_vsc" "main.cpp"
	.section	.text$_Z5scanfPKcz,"x"
	.linkonce discard
	.globl	_Z5scanfPKcz
	.def	_Z5scanfPKcz;	.scl	2;	.type	32;	.endef
	.seh_proc	_Z5scanfPKcz
_Z5scanfPKcz:
.LFB2:
	.file 1 "C:/msys64/mingw64/x86_64-w64-mingw32/include/stdio.h"
	.loc 1 302 1
	.cfi_startproc
	push	rbp	 #
	.seh_pushreg	rbp
	.cfi_def_cfa_offset 16
	.cfi_offset 6, -16
	push	rbx	 #
	.seh_pushreg	rbx
	.cfi_def_cfa_offset 24
	.cfi_offset 3, -24
	sub	rsp, 56	 #,
	.seh_stackalloc	56
	.cfi_def_cfa_offset 80
	lea	rbp, 48[rsp]	 #,
	.seh_setframe	rbp, 48
	.cfi_def_cfa 6, 32
	.seh_endprologue
	mov	QWORD PTR 32[rbp], rcx	 # __format, __format
	mov	QWORD PTR 40[rbp], rdx	 #,
	mov	QWORD PTR 48[rbp], r8	 #,
	mov	QWORD PTR 56[rbp], r9	 #,
 # C:/msys64/mingw64/x86_64-w64-mingw32/include/stdio.h:304:   __builtin_va_list __local_argv; __builtin_va_start( __local_argv, __format );
	.loc 1 304 53
	lea	rax, 40[rbp]	 # tmp87,
	mov	QWORD PTR -16[rbp], rax	 # MEM[(char * *)&__local_argv], tmp87
 # C:/msys64/mingw64/x86_64-w64-mingw32/include/stdio.h:305:   __retval = __mingw_vfscanf( stdin, __format, __local_argv );
	.loc 1 305 29
	mov	rbx, QWORD PTR -16[rbp]	 # __local_argv.4_1, __local_argv
	mov	ecx, 0	 #,
	mov	rax, QWORD PTR __imp___acrt_iob_func[rip]	 # tmp88,
	call	rax	 # tmp88
.LVL0:
	mov	rcx, rax	 # _2,
 # C:/msys64/mingw64/x86_64-w64-mingw32/include/stdio.h:305:   __retval = __mingw_vfscanf( stdin, __format, __local_argv );
	.loc 1 305 29 is_stmt 0 discriminator 1
	mov	rax, QWORD PTR 32[rbp]	 # tmp89, __format
	mov	r8, rbx	 #, __local_argv.4_1
	mov	rdx, rax	 #, tmp89
	call	__mingw_vfscanf	 #
 # C:/msys64/mingw64/x86_64-w64-mingw32/include/stdio.h:305:   __retval = __mingw_vfscanf( stdin, __format, __local_argv );
	.loc 1 305 29 discriminator 2
	mov	DWORD PTR -4[rbp], eax	 # __retval, _10
 # C:/msys64/mingw64/x86_64-w64-mingw32/include/stdio.h:307:   return __retval;
	.loc 1 307 10 is_stmt 1
	mov	eax, DWORD PTR -4[rbp]	 # _13, __retval
 # C:/msys64/mingw64/x86_64-w64-mingw32/include/stdio.h:308: }
	.loc 1 308 1
	add	rsp, 56	 #,
	pop	rbx	 #
	.cfi_restore 3
	pop	rbp	 #
	.cfi_restore 6
	.cfi_def_cfa 7, -40
	ret	
	.cfi_endproc
.LFE2:
	.seh_endproc
	.section	.text$_Z6printfPKcz,"x"
	.linkonce discard
	.globl	_Z6printfPKcz
	.def	_Z6printfPKcz;	.scl	2;	.type	32;	.endef
	.seh_proc	_Z6printfPKcz
_Z6printfPKcz:
.LFB8:
	.loc 1 369 1
	.cfi_startproc
	push	rbp	 #
	.seh_pushreg	rbp
	.cfi_def_cfa_offset 16
	.cfi_offset 6, -16
	push	rbx	 #
	.seh_pushreg	rbx
	.cfi_def_cfa_offset 24
	.cfi_offset 3, -24
	sub	rsp, 56	 #,
	.seh_stackalloc	56
	.cfi_def_cfa_offset 80
	lea	rbp, 48[rsp]	 #,
	.seh_setframe	rbp, 48
	.cfi_def_cfa 6, 32
	.seh_endprologue
	mov	QWORD PTR 32[rbp], rcx	 # __format, __format
	mov	QWORD PTR 40[rbp], rdx	 #,
	mov	QWORD PTR 48[rbp], r8	 #,
	mov	QWORD PTR 56[rbp], r9	 #,
 # C:/msys64/mingw64/x86_64-w64-mingw32/include/stdio.h:371:   __builtin_va_list __local_argv; __builtin_va_start( __local_argv, __format );
	.loc 1 371 53
	lea	rax, 40[rbp]	 # tmp86,
	mov	QWORD PTR -16[rbp], rax	 # MEM[(char * *)&__local_argv], tmp86
 # C:/msys64/mingw64/x86_64-w64-mingw32/include/stdio.h:372:   __retval = __mingw_vfprintf( stdout, __format, __local_argv );
	.loc 1 372 30
	mov	rbx, QWORD PTR -16[rbp]	 # __local_argv.2_1, __local_argv
	mov	ecx, 1	 #,
	mov	rax, QWORD PTR __imp___acrt_iob_func[rip]	 # tmp87,
	call	rax	 # tmp87
.LVL1:
	mov	rcx, rax	 # _2,
 # C:/msys64/mingw64/x86_64-w64-mingw32/include/stdio.h:372:   __retval = __mingw_vfprintf( stdout, __format, __local_argv );
	.loc 1 372 30 is_stmt 0 discriminator 1
	mov	rax, QWORD PTR 32[rbp]	 # tmp88, __format
	mov	r8, rbx	 #, __local_argv.2_1
	mov	rdx, rax	 #, tmp88
	call	__mingw_vfprintf	 #
	mov	DWORD PTR -4[rbp], eax	 # __retval, tmp89
 # C:/msys64/mingw64/x86_64-w64-mingw32/include/stdio.h:374:   return __retval;
	.loc 1 374 10 is_stmt 1
	mov	eax, DWORD PTR -4[rbp]	 # _11, __retval
 # C:/msys64/mingw64/x86_64-w64-mingw32/include/stdio.h:375: }
	.loc 1 375 1
	add	rsp, 56	 #,
	pop	rbx	 #
	.cfi_restore 3
	pop	rbp	 #
	.cfi_restore 6
	.cfi_def_cfa 7, -40
	ret	
	.cfi_endproc
.LFE8:
	.seh_endproc
	.text
	.globl	_Z9clean_bufv
	.def	_Z9clean_bufv;	.scl	2;	.type	32;	.endef
	.seh_proc	_Z9clean_bufv
_Z9clean_bufv:
.LFB2543:
	.file 2 "main.cpp"
	.loc 2 16 1
	.cfi_startproc
	push	rbp	 #
	.seh_pushreg	rbp
	.cfi_def_cfa_offset 16
	.cfi_offset 6, -16
	mov	rbp, rsp	 #,
	.seh_setframe	rbp, 0
	.cfi_def_cfa_register 6
	sub	rsp, 48	 #,
	.seh_stackalloc	48
	.seh_endprologue
 # main.cpp:18:     while ((c = getchar()) != '\n' && c != EOF);
	.loc 2 18 5
	nop	
.L8:
 # main.cpp:18:     while ((c = getchar()) != '\n' && c != EOF);
	.loc 2 18 24 discriminator 7
	call	getchar	 #
	mov	DWORD PTR -4[rbp], eax	 # c, _5
 # main.cpp:18:     while ((c = getchar()) != '\n' && c != EOF);
	.loc 2 18 36 discriminator 7
	cmp	DWORD PTR -4[rbp], 10	 # c,
	je	.L6	 #,
 # main.cpp:18:     while ((c = getchar()) != '\n' && c != EOF);
	.loc 2 18 36 is_stmt 0 discriminator 1
	cmp	DWORD PTR -4[rbp], -1	 # c,
	je	.L6	 #,
 # main.cpp:18:     while ((c = getchar()) != '\n' && c != EOF);
	.loc 2 18 36 discriminator 3
	mov	eax, 1	 # iftmp.1_1,
 # main.cpp:18:     while ((c = getchar()) != '\n' && c != EOF);
	.loc 2 18 36
	jmp	.L7	 #
.L6:
 # main.cpp:18:     while ((c = getchar()) != '\n' && c != EOF);
	.loc 2 18 36 discriminator 4
	mov	eax, 0	 # iftmp.1_1,
.L7:
 # main.cpp:18:     while ((c = getchar()) != '\n' && c != EOF);
	.loc 2 18 36 discriminator 6
	test	al, al	 # iftmp.1_1
	jne	.L8	 #,
 # main.cpp:19: }
	.loc 2 19 1 is_stmt 1
	nop	
	nop	
	add	rsp, 48	 #,
	pop	rbp	 #
	.cfi_restore 6
	.cfi_def_cfa 7, 8
	ret	
	.cfi_endproc
.LFE2543:
	.seh_endproc
	.section .rdata,"dr"
.LC0:
	.ascii "%s\0"
.LC1:
	.ascii " %f\0"
.LC2:
	.ascii "\12\0"
	.text
	.globl	_Z9print_vecPfiPKc
	.def	_Z9print_vecPfiPKc;	.scl	2;	.type	32;	.endef
	.seh_proc	_Z9print_vecPfiPKc
_Z9print_vecPfiPKc:
.LFB2544:
	.loc 2 22 1
	.cfi_startproc
	push	rbp	 #
	.seh_pushreg	rbp
	.cfi_def_cfa_offset 16
	.cfi_offset 6, -16
	mov	rbp, rsp	 #,
	.seh_setframe	rbp, 0
	.cfi_def_cfa_register 6
	sub	rsp, 48	 #,
	.seh_stackalloc	48
	.seh_endprologue
	mov	QWORD PTR 16[rbp], rcx	 # vec, vec
	mov	DWORD PTR 24[rbp], edx	 # n, n
	mov	QWORD PTR 32[rbp], r8	 # str_help, str_help
 # main.cpp:23:     printf("%s", str_help);
	.loc 2 23 11
	mov	rax, QWORD PTR 32[rbp]	 # tmp87, str_help
	mov	rdx, rax	 #, tmp87
	lea	rax, .LC0[rip]	 # tmp88,
	mov	rcx, rax	 #, tmp88
	call	_Z6printfPKcz	 #
.LBB2:
 # main.cpp:24:     for (int i = 0; i < n; i++)
	.loc 2 24 14
	mov	DWORD PTR -4[rbp], 0	 # i,
 # main.cpp:24:     for (int i = 0; i < n; i++)
	.loc 2 24 5
	jmp	.L10	 #
.L11:
 # main.cpp:25:         printf(" %f", vec[i]);
	.loc 2 25 27
	mov	eax, DWORD PTR -4[rbp]	 # tmp89, i
	cdqe
 # main.cpp:25:         printf(" %f", vec[i]);
	.loc 2 25 28
	lea	rdx, 0[0+rax*4]	 # _2,
	mov	rax, QWORD PTR 16[rbp]	 # tmp90, vec
	add	rax, rdx	 # _3, _2
	movss	xmm0, DWORD PTR [rax]	 # _4, *_3
 # main.cpp:25:         printf(" %f", vec[i]);
	.loc 2 25 15
	cvtss2sd	xmm0, xmm0	 # _5, _4
	movq	rax, xmm0	 # tmp91, _5
	mov	rdx, rax	 # tmp92, tmp91
	movq	xmm0, rdx	 # tmp94, tmp92
	movapd	xmm1, xmm0	 #, tmp94
	mov	rdx, rax	 #, tmp95
	lea	rax, .LC1[rip]	 # tmp96,
	mov	rcx, rax	 #, tmp96
	call	_Z6printfPKcz	 #
 # main.cpp:24:     for (int i = 0; i < n; i++)
	.loc 2 24 5 discriminator 3
	add	DWORD PTR -4[rbp], 1	 # i,
.L10:
 # main.cpp:24:     for (int i = 0; i < n; i++)
	.loc 2 24 23 discriminator 1
	mov	eax, DWORD PTR -4[rbp]	 # tmp97, i
	cmp	eax, DWORD PTR 24[rbp]	 # tmp97, n
	jl	.L11	 #,
.LBE2:
 # main.cpp:26:     printf("\n");
	.loc 2 26 11
	lea	rax, .LC2[rip]	 # tmp98,
	mov	rcx, rax	 #, tmp98
	call	_Z6printfPKcz	 #
 # main.cpp:27: }
	.loc 2 27 1
	nop	
	add	rsp, 48	 #,
	pop	rbp	 #
	.cfi_restore 6
	.cfi_def_cfa 7, 8
	ret	
	.cfi_endproc
.LFE2544:
	.seh_endproc
	.section .rdata,"dr"
	.align 8
.LC3:
	.ascii "Input, %s please (integer number): \0"
.LC4:
	.ascii "%d\0"
	.align 8
.LC5:
	.ascii "Error with input. Repeat input, please.\12\0"
	.align 8
.LC6:
	.ascii "Size must be positive. Repeat input, please.\12\0"
	.text
	.globl	_Z10input_sizePiPKc
	.def	_Z10input_sizePiPKc;	.scl	2;	.type	32;	.endef
	.seh_proc	_Z10input_sizePiPKc
_Z10input_sizePiPKc:
.LFB2545:
	.loc 2 30 1
	.cfi_startproc
	push	rbp	 #
	.seh_pushreg	rbp
	.cfi_def_cfa_offset 16
	.cfi_offset 6, -16
	mov	rbp, rsp	 #,
	.seh_setframe	rbp, 0
	.cfi_def_cfa_register 6
	sub	rsp, 48	 #,
	.seh_stackalloc	48
	.seh_endprologue
	mov	QWORD PTR 16[rbp], rcx	 # n, n
	mov	QWORD PTR 24[rbp], rdx	 # str_help, str_help
 # main.cpp:31:     int flag = NOT_YET;
	.loc 2 31 9
	mov	DWORD PTR -4[rbp], -1	 # flag,
 # main.cpp:32:     while (flag == NOT_YET)
	.loc 2 32 5
	jmp	.L13	 #
.L17:
 # main.cpp:34:         printf("Input, %s please (integer number): ", str_help);
	.loc 2 34 15
	mov	rax, QWORD PTR 24[rbp]	 # tmp85, str_help
	mov	rdx, rax	 #, tmp85
	lea	rax, .LC3[rip]	 # tmp86,
	mov	rcx, rax	 #, tmp86
	call	_Z6printfPKcz	 #
 # main.cpp:35:         if (scanf("%d", n) != 1)
	.loc 2 35 18
	mov	rax, QWORD PTR 16[rbp]	 # tmp87, n
	mov	rdx, rax	 #, tmp87
	lea	rax, .LC4[rip]	 # tmp88,
	mov	rcx, rax	 #, tmp88
	call	_Z5scanfPKcz	 #
 # main.cpp:35:         if (scanf("%d", n) != 1)
	.loc 2 35 28 discriminator 1
	cmp	eax, 1	 # _1,
	setne	al	 #, retval.3_12
 # main.cpp:35:         if (scanf("%d", n) != 1)
	.loc 2 35 9 discriminator 1
	test	al, al	 # retval.3_12
	je	.L14	 #,
 # main.cpp:36:             printf("Error with input. Repeat input, please.\n");
	.loc 2 36 19
	lea	rax, .LC5[rip]	 # tmp89,
	mov	rcx, rax	 #, tmp89
	call	_Z6printfPKcz	 #
	jmp	.L13	 #
.L14:
 # main.cpp:37:         else if (*n <= 0)
	.loc 2 37 18
	mov	rax, QWORD PTR 16[rbp]	 # tmp90, n
	mov	eax, DWORD PTR [rax]	 # _2, *n_9(D)
 # main.cpp:37:         else if (*n <= 0)
	.loc 2 37 14
	test	eax, eax	 # _2
	jg	.L16	 #,
 # main.cpp:38:             printf("Size must be positive. Repeat input, please.\n");
	.loc 2 38 19
	lea	rax, .LC6[rip]	 # tmp91,
	mov	rcx, rax	 #, tmp91
	call	_Z6printfPKcz	 #
	jmp	.L13	 #
.L16:
 # main.cpp:40:             flag = DONE;
	.loc 2 40 18
	mov	DWORD PTR -4[rbp], 1	 # flag,
.L13:
 # main.cpp:32:     while (flag == NOT_YET)
	.loc 2 32 17
	cmp	DWORD PTR -4[rbp], -1	 # flag,
	je	.L17	 #,
 # main.cpp:42: }
	.loc 2 42 1
	nop	
	nop	
	add	rsp, 48	 #,
	pop	rbp	 #
	.cfi_restore 6
	.cfi_def_cfa 7, 8
	ret	
	.cfi_endproc
.LFE2545:
	.seh_endproc
	.section .rdata,"dr"
.LC7:
	.ascii "%f\0"
	.text
	.globl	_Z11input_floatPf
	.def	_Z11input_floatPf;	.scl	2;	.type	32;	.endef
	.seh_proc	_Z11input_floatPf
_Z11input_floatPf:
.LFB2546:
	.loc 2 45 1
	.cfi_startproc
	push	rbp	 #
	.seh_pushreg	rbp
	.cfi_def_cfa_offset 16
	.cfi_offset 6, -16
	mov	rbp, rsp	 #,
	.seh_setframe	rbp, 0
	.cfi_def_cfa_register 6
	sub	rsp, 48	 #,
	.seh_stackalloc	48
	.seh_endprologue
	mov	QWORD PTR 16[rbp], rcx	 # n, n
 # main.cpp:46:     int flag = NOT_YET;
	.loc 2 46 9
	mov	DWORD PTR -4[rbp], -1	 # flag,
 # main.cpp:47:     while (flag == NOT_YET)
	.loc 2 47 5
	jmp	.L19	 #
.L22:
 # main.cpp:49:         if (scanf("%f", n) != 1)
	.loc 2 49 18
	mov	rax, QWORD PTR 16[rbp]	 # tmp84, n
	mov	rdx, rax	 #, tmp84
	lea	rax, .LC7[rip]	 # tmp85,
	mov	rcx, rax	 #, tmp85
	call	_Z5scanfPKcz	 #
 # main.cpp:49:         if (scanf("%f", n) != 1)
	.loc 2 49 28 discriminator 1
	cmp	eax, 1	 # _1,
	setne	al	 #, retval.5_9
 # main.cpp:49:         if (scanf("%f", n) != 1)
	.loc 2 49 9 discriminator 1
	test	al, al	 # retval.5_9
	je	.L20	 #,
 # main.cpp:50:             printf("Error with input. Repeat input, please.\n");
	.loc 2 50 19
	lea	rax, .LC5[rip]	 # tmp86,
	mov	rcx, rax	 #, tmp86
	call	_Z6printfPKcz	 #
	jmp	.L19	 #
.L20:
 # main.cpp:52:             flag = DONE;
	.loc 2 52 18
	mov	DWORD PTR -4[rbp], 1	 # flag,
.L19:
 # main.cpp:47:     while (flag == NOT_YET)
	.loc 2 47 17
	cmp	DWORD PTR -4[rbp], -1	 # flag,
	je	.L22	 #,
 # main.cpp:54: }
	.loc 2 54 1
	nop	
	nop	
	add	rsp, 48	 #,
	pop	rbp	 #
	.cfi_restore 6
	.cfi_def_cfa 7, 8
	ret	
	.cfi_endproc
.LFE2546:
	.seh_endproc
	.section .rdata,"dr"
.LC8:
	.ascii "(L)\0"
.LC9:
	.ascii "(M)\0"
.LC10:
	.ascii "(N)\0"
	.text
	.globl	_Z10read_sizesPiS_S_
	.def	_Z10read_sizesPiS_S_;	.scl	2;	.type	32;	.endef
	.seh_proc	_Z10read_sizesPiS_S_
_Z10read_sizesPiS_S_:
.LFB2547:
	.loc 2 57 1
	.cfi_startproc
	push	rbp	 #
	.seh_pushreg	rbp
	.cfi_def_cfa_offset 16
	.cfi_offset 6, -16
	mov	rbp, rsp	 #,
	.seh_setframe	rbp, 0
	.cfi_def_cfa_register 6
	sub	rsp, 32	 #,
	.seh_stackalloc	32
	.seh_endprologue
	mov	QWORD PTR 16[rbp], rcx	 # l, l
	mov	QWORD PTR 24[rbp], rdx	 # m, m
	mov	QWORD PTR 32[rbp], r8	 # n, n
 # main.cpp:58:     input_size(l, "(L)");
	.loc 2 58 15
	mov	rax, QWORD PTR 16[rbp]	 # tmp82, l
	lea	rdx, .LC8[rip]	 # tmp83,
	mov	rcx, rax	 #, tmp82
	call	_Z10input_sizePiPKc	 #
 # main.cpp:59:     input_size(m, "(M)");
	.loc 2 59 15
	mov	rax, QWORD PTR 24[rbp]	 # tmp84, m
	lea	rdx, .LC9[rip]	 # tmp85,
	mov	rcx, rax	 #, tmp84
	call	_Z10input_sizePiPKc	 #
 # main.cpp:60:     input_size(n, "(N)");
	.loc 2 60 15
	mov	rax, QWORD PTR 32[rbp]	 # tmp86, n
	lea	rdx, .LC10[rip]	 # tmp87,
	mov	rcx, rax	 #, tmp86
	call	_Z10input_sizePiPKc	 #
 # main.cpp:61:     clean_buf();
	.loc 2 61 14
	call	_Z9clean_bufv	 #
 # main.cpp:62: }
	.loc 2 62 1
	nop	
	add	rsp, 32	 #,
	pop	rbp	 #
	.cfi_restore 6
	.cfi_def_cfa 7, 8
	ret	
	.cfi_endproc
.LFE2547:
	.seh_endproc
	.section .rdata,"dr"
	.align 8
.LC11:
	.ascii "Input elements of matrix #%d, please:\12\0"
	.text
	.globl	_Z11read_matrixiii
	.def	_Z11read_matrixiii;	.scl	2;	.type	32;	.endef
	.seh_proc	_Z11read_matrixiii
_Z11read_matrixiii:
.LFB2548:
	.loc 2 65 1
	.cfi_startproc
	push	rbp	 #
	.seh_pushreg	rbp
	.cfi_def_cfa_offset 16
	.cfi_offset 6, -16
	mov	rbp, rsp	 #,
	.seh_setframe	rbp, 0
	.cfi_def_cfa_register 6
	sub	rsp, 48	 #,
	.seh_stackalloc	48
	.seh_endprologue
	mov	DWORD PTR 16[rbp], ecx	 # n, n
	mov	DWORD PTR 24[rbp], edx	 # m, m
	mov	DWORD PTR 32[rbp], r8d	 # num, num
 # main.cpp:66:     float *mat = (float *) calloc(n * m, sizeof(float));
	.loc 2 66 37
	mov	eax, DWORD PTR 16[rbp]	 # tmp91, n
	imul	eax, DWORD PTR 24[rbp]	 # _1, m
 # main.cpp:66:     float *mat = (float *) calloc(n * m, sizeof(float));
	.loc 2 66 34
	cdqe
	mov	edx, 4	 #,
	mov	rcx, rax	 #, _2
	call	calloc	 #
	mov	QWORD PTR -16[rbp], rax	 # mat, tmp92
 # main.cpp:67:     printf("Input elements of matrix #%d, please:\n", num);
	.loc 2 67 11
	mov	eax, DWORD PTR 32[rbp]	 # tmp93, num
	mov	edx, eax	 #, tmp93
	lea	rax, .LC11[rip]	 # tmp94,
	mov	rcx, rax	 #, tmp94
	call	_Z6printfPKcz	 #
.LBB3:
 # main.cpp:68:     for (int i = 0; i < n; i++)
	.loc 2 68 14
	mov	DWORD PTR -4[rbp], 0	 # i,
 # main.cpp:68:     for (int i = 0; i < n; i++)
	.loc 2 68 5
	jmp	.L25	 #
.L28:
.LBB4:
.LBB5:
 # main.cpp:69:         for (int j = 0; j < m; j++)
	.loc 2 69 18
	mov	DWORD PTR -8[rbp], 0	 # j,
 # main.cpp:69:         for (int j = 0; j < m; j++)
	.loc 2 69 9
	jmp	.L26	 #
.L27:
 # main.cpp:70:             input_float(&(mat[i * m + j]));
	.loc 2 70 33
	mov	eax, DWORD PTR -4[rbp]	 # tmp95, i
	imul	eax, DWORD PTR 24[rbp]	 # tmp95, m
	mov	edx, eax	 # _3, tmp95
 # main.cpp:70:             input_float(&(mat[i * m + j]));
	.loc 2 70 37
	mov	eax, DWORD PTR -8[rbp]	 # tmp96, j
	add	eax, edx	 # _4, _3
	cdqe
 # main.cpp:70:             input_float(&(mat[i * m + j]));
	.loc 2 70 40
	lea	rdx, 0[0+rax*4]	 # _6,
 # main.cpp:70:             input_float(&(mat[i * m + j]));
	.loc 2 70 24
	mov	rax, QWORD PTR -16[rbp]	 # tmp97, mat
	add	rax, rdx	 # _7, _6
	mov	rcx, rax	 #, _7
	call	_Z11input_floatPf	 #
 # main.cpp:69:         for (int j = 0; j < m; j++)
	.loc 2 69 9 discriminator 3
	add	DWORD PTR -8[rbp], 1	 # j,
.L26:
 # main.cpp:69:         for (int j = 0; j < m; j++)
	.loc 2 69 27 discriminator 1
	mov	eax, DWORD PTR -8[rbp]	 # tmp98, j
	cmp	eax, DWORD PTR 24[rbp]	 # tmp98, m
	jl	.L27	 #,
.LBE5:
.LBE4:
 # main.cpp:68:     for (int i = 0; i < n; i++)
	.loc 2 68 5 discriminator 2
	add	DWORD PTR -4[rbp], 1	 # i,
.L25:
 # main.cpp:68:     for (int i = 0; i < n; i++)
	.loc 2 68 23 discriminator 1
	mov	eax, DWORD PTR -4[rbp]	 # tmp99, i
	cmp	eax, DWORD PTR 16[rbp]	 # tmp99, n
	jl	.L28	 #,
.LBE3:
 # main.cpp:71:     return mat;
	.loc 2 71 12
	mov	rax, QWORD PTR -16[rbp]	 # _20, mat
 # main.cpp:72: }
	.loc 2 72 1
	add	rsp, 48	 #,
	pop	rbp	 #
	.cfi_restore 6
	.cfi_def_cfa 7, 8
	ret	
	.cfi_endproc
.LFE2548:
	.seh_endproc
	.section .rdata,"dr"
.LC12:
	.ascii "Empty matrix\0"
.LC13:
	.ascii "Matrix:\12\0"
.LC14:
	.ascii "%f \0"
	.text
	.globl	_Z12print_matrixPfii
	.def	_Z12print_matrixPfii;	.scl	2;	.type	32;	.endef
	.seh_proc	_Z12print_matrixPfii
_Z12print_matrixPfii:
.LFB2549:
	.loc 2 75 1
	.cfi_startproc
	push	rbp	 #
	.seh_pushreg	rbp
	.cfi_def_cfa_offset 16
	.cfi_offset 6, -16
	mov	rbp, rsp	 #,
	.seh_setframe	rbp, 0
	.cfi_def_cfa_register 6
	sub	rsp, 48	 #,
	.seh_stackalloc	48
	.seh_endprologue
	mov	QWORD PTR 16[rbp], rcx	 # mat, mat
	mov	DWORD PTR 24[rbp], edx	 # n, n
	mov	DWORD PTR 32[rbp], r8d	 # m, m
.LBB6:
 # main.cpp:76:     if (n == 0 || m == 0)
	.loc 2 76 5
	cmp	DWORD PTR 24[rbp], 0	 # n,
	je	.L31	 #,
 # main.cpp:76:     if (n == 0 || m == 0)
	.loc 2 76 16 discriminator 1
	cmp	DWORD PTR 32[rbp], 0	 # m,
	jne	.L32	 #,
.L31:
 # main.cpp:77:         printf("Empty matrix");
	.loc 2 77 15
	lea	rax, .LC12[rip]	 # tmp89,
	mov	rcx, rax	 #, tmp89
	call	_Z6printfPKcz	 #
	jmp	.L33	 #
.L32:
.LBB7:
 # main.cpp:80:         printf("Matrix:\n");
	.loc 2 80 15
	lea	rax, .LC13[rip]	 # tmp90,
	mov	rcx, rax	 #, tmp90
	call	_Z6printfPKcz	 #
.LBB8:
 # main.cpp:81:         for (int i = 0; i < n; i++)
	.loc 2 81 18
	mov	DWORD PTR -4[rbp], 0	 # i,
 # main.cpp:81:         for (int i = 0; i < n; i++)
	.loc 2 81 9
	jmp	.L34	 #
.L37:
.LBB9:
.LBB10:
 # main.cpp:83:             for (int j = 0; j < m; j++)
	.loc 2 83 22
	mov	DWORD PTR -8[rbp], 0	 # j,
 # main.cpp:83:             for (int j = 0; j < m; j++)
	.loc 2 83 13
	jmp	.L35	 #
.L36:
 # main.cpp:84:                 printf("%f ", mat[i * m + j]);
	.loc 2 84 37
	mov	eax, DWORD PTR -4[rbp]	 # tmp91, i
	imul	eax, DWORD PTR 32[rbp]	 # tmp91, m
	mov	edx, eax	 # _1, tmp91
 # main.cpp:84:                 printf("%f ", mat[i * m + j]);
	.loc 2 84 41
	mov	eax, DWORD PTR -8[rbp]	 # tmp92, j
	add	eax, edx	 # _2, _1
	cdqe
 # main.cpp:84:                 printf("%f ", mat[i * m + j]);
	.loc 2 84 44
	lea	rdx, 0[0+rax*4]	 # _4,
	mov	rax, QWORD PTR 16[rbp]	 # tmp93, mat
	add	rax, rdx	 # _5, _4
	movss	xmm0, DWORD PTR [rax]	 # _6, *_5
 # main.cpp:84:                 printf("%f ", mat[i * m + j]);
	.loc 2 84 23
	cvtss2sd	xmm0, xmm0	 # _7, _6
	movq	rax, xmm0	 # tmp94, _7
	mov	rdx, rax	 # tmp95, tmp94
	movq	xmm0, rdx	 # tmp97, tmp95
	movapd	xmm1, xmm0	 #, tmp97
	mov	rdx, rax	 #, tmp98
	lea	rax, .LC14[rip]	 # tmp99,
	mov	rcx, rax	 #, tmp99
	call	_Z6printfPKcz	 #
 # main.cpp:83:             for (int j = 0; j < m; j++)
	.loc 2 83 13 discriminator 3
	add	DWORD PTR -8[rbp], 1	 # j,
.L35:
 # main.cpp:83:             for (int j = 0; j < m; j++)
	.loc 2 83 31 discriminator 1
	mov	eax, DWORD PTR -8[rbp]	 # tmp100, j
	cmp	eax, DWORD PTR 32[rbp]	 # tmp100, m
	jl	.L36	 #,
.LBE10:
 # main.cpp:85:             printf("\n");
	.loc 2 85 19
	lea	rax, .LC2[rip]	 # tmp101,
	mov	rcx, rax	 #, tmp101
	call	_Z6printfPKcz	 #
.LBE9:
 # main.cpp:81:         for (int i = 0; i < n; i++)
	.loc 2 81 9 discriminator 2
	add	DWORD PTR -4[rbp], 1	 # i,
.L34:
 # main.cpp:81:         for (int i = 0; i < n; i++)
	.loc 2 81 27 discriminator 1
	mov	eax, DWORD PTR -4[rbp]	 # tmp102, i
	cmp	eax, DWORD PTR 24[rbp]	 # tmp102, n
	jl	.L37	 #,
.LBE8:
.LBE7:
.LBE6:
 # main.cpp:88: }
	.loc 2 88 1
	nop	
.L33:
	nop	
	add	rsp, 48	 #,
	pop	rbp	 #
	.cfi_restore 6
	.cfi_def_cfa 7, 8
	ret	
	.cfi_endproc
.LFE2549:
	.seh_endproc
	.globl	_Z12make_vec_rowPfii
	.def	_Z12make_vec_rowPfii;	.scl	2;	.type	32;	.endef
	.seh_proc	_Z12make_vec_rowPfii
_Z12make_vec_rowPfii:
.LFB2550:
	.loc 2 108 1
	.cfi_startproc
	push	rbp	 #
	.seh_pushreg	rbp
	.cfi_def_cfa_offset 16
	.cfi_offset 6, -16
	mov	rbp, rsp	 #,
	.seh_setframe	rbp, 0
	.cfi_def_cfa_register 6
	sub	rsp, 48	 #,
	.seh_stackalloc	48
	.seh_endprologue
	mov	QWORD PTR 16[rbp], rcx	 # mat, mat
	mov	DWORD PTR 24[rbp], edx	 # row, row
	mov	DWORD PTR 32[rbp], r8d	 # count_col, count_col
 # main.cpp:109:     int size = count_col + (COUNT_PACK - count_col % COUNT_PACK);
	.loc 2 109 26
	mov	eax, DWORD PTR 32[rbp]	 # count_col.6_1, count_col
 # main.cpp:109:     int size = count_col + (COUNT_PACK - count_col % COUNT_PACK);
	.loc 2 109 42
	mov	edx, DWORD PTR 32[rbp]	 # tmp101, count_col
	movsx	rdx, edx	 # _2, tmp101
 # main.cpp:109:     int size = count_col + (COUNT_PACK - count_col % COUNT_PACK);
	.loc 2 109 52
	and	edx, 15	 # _3,
 # main.cpp:109:     int size = count_col + (COUNT_PACK - count_col % COUNT_PACK);
	.loc 2 109 54
	shr	rdx, 2	 # _4,
 # main.cpp:109:     int size = count_col + (COUNT_PACK - count_col % COUNT_PACK);
	.loc 2 109 26
	sub	eax, edx	 # _6, _5
	add	eax, 4	 # _7,
 # main.cpp:109:     int size = count_col + (COUNT_PACK - count_col % COUNT_PACK);
	.loc 2 109 9
	mov	DWORD PTR -8[rbp], eax	 # size, _7
 # main.cpp:110:     float *vec = (float *) calloc(size, sizeof(float));
	.loc 2 110 34
	mov	eax, DWORD PTR -8[rbp]	 # tmp102, size
	cdqe
	mov	edx, 4	 #,
	mov	rcx, rax	 #, _8
	call	calloc	 #
	mov	QWORD PTR -16[rbp], rax	 # vec, tmp103
.LBB11:
 # main.cpp:111:     for (int i = 0; i < count_col; i++)
	.loc 2 111 14
	mov	DWORD PTR -4[rbp], 0	 # i,
 # main.cpp:111:     for (int i = 0; i < count_col; i++)
	.loc 2 111 5
	jmp	.L39	 #
.L40:
 # main.cpp:112:         vec[i] = mat[row * count_col + i];
	.loc 2 112 26
	mov	eax, DWORD PTR 24[rbp]	 # tmp104, row
	imul	eax, DWORD PTR 32[rbp]	 # tmp104, count_col
	mov	edx, eax	 # _9, tmp104
 # main.cpp:112:         vec[i] = mat[row * count_col + i];
	.loc 2 112 38
	mov	eax, DWORD PTR -4[rbp]	 # tmp105, i
	add	eax, edx	 # _10, _9
	cdqe
 # main.cpp:112:         vec[i] = mat[row * count_col + i];
	.loc 2 112 41
	lea	rdx, 0[0+rax*4]	 # _12,
	mov	rax, QWORD PTR 16[rbp]	 # tmp106, mat
	add	rdx, rax	 # _13, tmp106
 # main.cpp:112:         vec[i] = mat[row * count_col + i];
	.loc 2 112 13
	mov	eax, DWORD PTR -4[rbp]	 # tmp107, i
	cdqe
 # main.cpp:112:         vec[i] = mat[row * count_col + i];
	.loc 2 112 14
	lea	rcx, 0[0+rax*4]	 # _15,
	mov	rax, QWORD PTR -16[rbp]	 # tmp108, vec
	add	rax, rcx	 # _16, _15
 # main.cpp:112:         vec[i] = mat[row * count_col + i];
	.loc 2 112 41
	movss	xmm0, DWORD PTR [rdx]	 # _17, *_13
 # main.cpp:112:         vec[i] = mat[row * count_col + i];
	.loc 2 112 16
	movss	DWORD PTR [rax], xmm0	 # *_16, _17
 # main.cpp:111:     for (int i = 0; i < count_col; i++)
	.loc 2 111 5 discriminator 3
	add	DWORD PTR -4[rbp], 1	 # i,
.L39:
 # main.cpp:111:     for (int i = 0; i < count_col; i++)
	.loc 2 111 23 discriminator 1
	mov	eax, DWORD PTR -4[rbp]	 # tmp109, i
	cmp	eax, DWORD PTR 32[rbp]	 # tmp109, count_col
	jl	.L40	 #,
.LBE11:
 # main.cpp:113:     return vec;
	.loc 2 113 12
	mov	rax, QWORD PTR -16[rbp]	 # _26, vec
 # main.cpp:114: }
	.loc 2 114 1
	add	rsp, 48	 #,
	pop	rbp	 #
	.cfi_restore 6
	.cfi_def_cfa 7, 8
	ret	
	.cfi_endproc
.LFE2550:
	.seh_endproc
	.globl	_Z12make_vec_colPfiii
	.def	_Z12make_vec_colPfiii;	.scl	2;	.type	32;	.endef
	.seh_proc	_Z12make_vec_colPfiii
_Z12make_vec_colPfiii:
.LFB2551:
	.loc 2 117 1
	.cfi_startproc
	push	rbp	 #
	.seh_pushreg	rbp
	.cfi_def_cfa_offset 16
	.cfi_offset 6, -16
	mov	rbp, rsp	 #,
	.seh_setframe	rbp, 0
	.cfi_def_cfa_register 6
	sub	rsp, 48	 #,
	.seh_stackalloc	48
	.seh_endprologue
	mov	QWORD PTR 16[rbp], rcx	 # mat, mat
	mov	DWORD PTR 24[rbp], edx	 # col, col
	mov	DWORD PTR 32[rbp], r8d	 # count_row, count_row
	mov	DWORD PTR 40[rbp], r9d	 # count_col, count_col
 # main.cpp:118:     int size = count_row + (COUNT_PACK - count_row % COUNT_PACK);
	.loc 2 118 26
	mov	eax, DWORD PTR 32[rbp]	 # count_row.7_1, count_row
 # main.cpp:118:     int size = count_row + (COUNT_PACK - count_row % COUNT_PACK);
	.loc 2 118 42
	mov	edx, DWORD PTR 32[rbp]	 # tmp101, count_row
	movsx	rdx, edx	 # _2, tmp101
 # main.cpp:118:     int size = count_row + (COUNT_PACK - count_row % COUNT_PACK);
	.loc 2 118 52
	and	edx, 15	 # _3,
 # main.cpp:118:     int size = count_row + (COUNT_PACK - count_row % COUNT_PACK);
	.loc 2 118 54
	shr	rdx, 2	 # _4,
 # main.cpp:118:     int size = count_row + (COUNT_PACK - count_row % COUNT_PACK);
	.loc 2 118 26
	sub	eax, edx	 # _6, _5
	add	eax, 4	 # _7,
 # main.cpp:118:     int size = count_row + (COUNT_PACK - count_row % COUNT_PACK);
	.loc 2 118 9
	mov	DWORD PTR -8[rbp], eax	 # size, _7
 # main.cpp:119:     float *vec = (float *) calloc(size, sizeof(float));
	.loc 2 119 34
	mov	eax, DWORD PTR -8[rbp]	 # tmp102, size
	cdqe
	mov	edx, 4	 #,
	mov	rcx, rax	 #, _8
	call	calloc	 #
	mov	QWORD PTR -16[rbp], rax	 # vec, tmp103
.LBB12:
 # main.cpp:120:     for (int i = 0; i < count_row; i++)
	.loc 2 120 14
	mov	DWORD PTR -4[rbp], 0	 # i,
 # main.cpp:120:     for (int i = 0; i < count_row; i++)
	.loc 2 120 5
	jmp	.L43	 #
.L44:
 # main.cpp:121:         vec[i] = mat[i * count_col + col];
	.loc 2 121 24
	mov	eax, DWORD PTR -4[rbp]	 # tmp104, i
	imul	eax, DWORD PTR 40[rbp]	 # tmp104, count_col
	mov	edx, eax	 # _9, tmp104
 # main.cpp:121:         vec[i] = mat[i * count_col + col];
	.loc 2 121 36
	mov	eax, DWORD PTR 24[rbp]	 # tmp105, col
	add	eax, edx	 # _10, _9
	cdqe
 # main.cpp:121:         vec[i] = mat[i * count_col + col];
	.loc 2 121 41
	lea	rdx, 0[0+rax*4]	 # _12,
	mov	rax, QWORD PTR 16[rbp]	 # tmp106, mat
	add	rdx, rax	 # _13, tmp106
 # main.cpp:121:         vec[i] = mat[i * count_col + col];
	.loc 2 121 13
	mov	eax, DWORD PTR -4[rbp]	 # tmp107, i
	cdqe
 # main.cpp:121:         vec[i] = mat[i * count_col + col];
	.loc 2 121 14
	lea	rcx, 0[0+rax*4]	 # _15,
	mov	rax, QWORD PTR -16[rbp]	 # tmp108, vec
	add	rax, rcx	 # _16, _15
 # main.cpp:121:         vec[i] = mat[i * count_col + col];
	.loc 2 121 41
	movss	xmm0, DWORD PTR [rdx]	 # _17, *_13
 # main.cpp:121:         vec[i] = mat[i * count_col + col];
	.loc 2 121 16
	movss	DWORD PTR [rax], xmm0	 # *_16, _17
 # main.cpp:120:     for (int i = 0; i < count_row; i++)
	.loc 2 120 5 discriminator 3
	add	DWORD PTR -4[rbp], 1	 # i,
.L43:
 # main.cpp:120:     for (int i = 0; i < count_row; i++)
	.loc 2 120 23 discriminator 1
	mov	eax, DWORD PTR -4[rbp]	 # tmp109, i
	cmp	eax, DWORD PTR 32[rbp]	 # tmp109, count_row
	jl	.L44	 #,
.LBE12:
 # main.cpp:122:     return vec;
	.loc 2 122 12
	mov	rax, QWORD PTR -16[rbp]	 # _26, vec
 # main.cpp:123: }
	.loc 2 123 1
	add	rsp, 48	 #,
	pop	rbp	 #
	.cfi_restore 6
	.cfi_def_cfa 7, 8
	ret	
	.cfi_endproc
.LFE2551:
	.seh_endproc
	.globl	_Z12multy_matrixPfS_iii
	.def	_Z12multy_matrixPfS_iii;	.scl	2;	.type	32;	.endef
	.seh_proc	_Z12multy_matrixPfS_iii
_Z12multy_matrixPfS_iii:
.LFB2552:
	.loc 2 126 1
	.cfi_startproc
	push	rbp	 #
	.seh_pushreg	rbp
	.cfi_def_cfa_offset 16
	.cfi_offset 6, -16
	mov	rbp, rsp	 #,
	.seh_setframe	rbp, 0
	.cfi_def_cfa_register 6
	sub	rsp, 96	 #,
	.seh_stackalloc	96
	.seh_endprologue
	mov	QWORD PTR 16[rbp], rcx	 # mat1, mat1
	mov	QWORD PTR 24[rbp], rdx	 # mat2, mat2
	mov	DWORD PTR 32[rbp], r8d	 # l, l
	mov	DWORD PTR 40[rbp], r9d	 # m, m
 # main.cpp:127:     float *mat_res = (float *) calloc(l * n, sizeof(float));
	.loc 2 127 41
	mov	eax, DWORD PTR 32[rbp]	 # tmp107, l
	imul	eax, DWORD PTR 48[rbp]	 # _1, n
 # main.cpp:127:     float *mat_res = (float *) calloc(l * n, sizeof(float));
	.loc 2 127 38
	cdqe
	mov	edx, 4	 #,
	mov	rcx, rax	 #, _2
	call	calloc	 #
	mov	QWORD PTR -24[rbp], rax	 # mat_res, tmp108
.LBB13:
 # main.cpp:128:     for (int i = 0; i < l; i++)
	.loc 2 128 14
	mov	DWORD PTR -4[rbp], 0	 # i,
 # main.cpp:128:     for (int i = 0; i < l; i++)
	.loc 2 128 5
	jmp	.L47	 #
.L52:
.LBB14:
.LBB15:
 # main.cpp:129:         for (int j = 0; j < n; j++)
	.loc 2 129 18
	mov	DWORD PTR -8[rbp], 0	 # j,
 # main.cpp:129:         for (int j = 0; j < n; j++)
	.loc 2 129 9
	jmp	.L48	 #
.L51:
.LBB16:
 # main.cpp:131:             float *vec_row = make_vec_row(mat1, i, m);
	.loc 2 131 42
	mov	ecx, DWORD PTR 40[rbp]	 # tmp109, m
	mov	edx, DWORD PTR -4[rbp]	 # tmp110, i
	mov	rax, QWORD PTR 16[rbp]	 # tmp111, mat1
	mov	r8d, ecx	 #, tmp109
	mov	rcx, rax	 #, tmp111
	call	_Z12make_vec_rowPfii	 #
	mov	QWORD PTR -32[rbp], rax	 # vec_row, tmp112
 # main.cpp:132:             float *vec_col = make_vec_col(mat2, j, m, n);
	.loc 2 132 42
	mov	r8d, DWORD PTR 48[rbp]	 # tmp113, n
	mov	ecx, DWORD PTR 40[rbp]	 # tmp114, m
	mov	edx, DWORD PTR -8[rbp]	 # tmp115, j
	mov	rax, QWORD PTR 24[rbp]	 # tmp116, mat2
	mov	r9d, r8d	 #, tmp113
	mov	r8d, ecx	 #, tmp114
	mov	rcx, rax	 #, tmp116
	call	_Z12make_vec_colPfiii	 #
	mov	QWORD PTR -40[rbp], rax	 # vec_col, tmp117
.LBB17:
 # main.cpp:133:             for (int k = 0; k < m; k += COUNT_PACK)
	.loc 2 133 22
	mov	DWORD PTR -12[rbp], 0	 # k,
 # main.cpp:133:             for (int k = 0; k < m; k += COUNT_PACK)
	.loc 2 133 13
	jmp	.L49	 #
.L50:
.LBB18:
 # main.cpp:136:                 __m128 *row_ptr = (__m128 *)(vec_row + k);
	.loc 2 136 56
	mov	eax, DWORD PTR -12[rbp]	 # tmp118, k
	cdqe
 # main.cpp:136:                 __m128 *row_ptr = (__m128 *)(vec_row + k);
	.loc 2 136 54
	lea	rdx, 0[0+rax*4]	 # _4,
	mov	rax, QWORD PTR -32[rbp]	 # tmp119, vec_row
	add	rax, rdx	 # _5, _4
 # main.cpp:136:                 __m128 *row_ptr = (__m128 *)(vec_row + k);
	.loc 2 136 25
	mov	QWORD PTR -56[rbp], rax	 # row_ptr, _5
 # main.cpp:137:                 __m128 *col_ptr = (__m128 *)(vec_col + k);
	.loc 2 137 56
	mov	eax, DWORD PTR -12[rbp]	 # tmp120, k
	cdqe
 # main.cpp:137:                 __m128 *col_ptr = (__m128 *)(vec_col + k);
	.loc 2 137 54
	lea	rdx, 0[0+rax*4]	 # _7,
	mov	rax, QWORD PTR -40[rbp]	 # tmp121, vec_col
	add	rax, rdx	 # _8, _7
 # main.cpp:137:                 __m128 *col_ptr = (__m128 *)(vec_col + k);
	.loc 2 137 25
	mov	QWORD PTR -64[rbp], rax	 # col_ptr, _8
 # main.cpp:138:                 __asm__(
	.loc 2 138 17
/APP
 # 138 "main.cpp" 1
	movdqu xmm0, QWORD PTR -56[rbp]	 # row_ptr
	movups xmm1, QWORD PTR -64[rbp]	 # col_ptr
	mulps xmm0, xmm1
	haddps xmm0, xmm0
	haddps xmm0, xmm0
	movss DWORD PTR -44[rbp], xmm0	 # sum
	
 # 0 "" 2
 # main.cpp:150:                 mat_res[i * n + j] += sum;
	.loc 2 150 34
/NO_APP
	mov	eax, DWORD PTR -4[rbp]	 # tmp122, i
	imul	eax, DWORD PTR 48[rbp]	 # tmp122, n
	mov	edx, eax	 # _9, tmp122
	mov	eax, DWORD PTR -8[rbp]	 # tmp123, j
	add	eax, edx	 # _10, _9
	cdqe
	lea	rdx, 0[0+rax*4]	 # _12,
	mov	rax, QWORD PTR -24[rbp]	 # tmp124, mat_res
	add	rax, rdx	 # _13, _12
	movss	xmm1, DWORD PTR [rax]	 # _14, *_13
 # main.cpp:150:                 mat_res[i * n + j] += sum;
	.loc 2 150 36
	movss	xmm0, DWORD PTR -44[rbp]	 # sum.8_15, sum
 # main.cpp:150:                 mat_res[i * n + j] += sum;
	.loc 2 150 34
	mov	eax, DWORD PTR -4[rbp]	 # tmp125, i
	imul	eax, DWORD PTR 48[rbp]	 # tmp125, n
	mov	edx, eax	 # _16, tmp125
	mov	eax, DWORD PTR -8[rbp]	 # tmp126, j
	add	eax, edx	 # _17, _16
	cdqe
	lea	rdx, 0[0+rax*4]	 # _19,
	mov	rax, QWORD PTR -24[rbp]	 # tmp127, mat_res
	add	rax, rdx	 # _20, _19
 # main.cpp:150:                 mat_res[i * n + j] += sum;
	.loc 2 150 36
	addss	xmm0, xmm1	 # _21, _14
	movss	DWORD PTR [rax], xmm0	 # *_20, _21
.LBE18:
 # main.cpp:133:             for (int k = 0; k < m; k += COUNT_PACK)
	.loc 2 133 38 discriminator 3
	mov	eax, DWORD PTR -12[rbp]	 # k.9_22, k
	add	eax, 4	 # _23,
	mov	DWORD PTR -12[rbp], eax	 # k, _23
.L49:
 # main.cpp:133:             for (int k = 0; k < m; k += COUNT_PACK)
	.loc 2 133 31 discriminator 1
	mov	eax, DWORD PTR -12[rbp]	 # tmp128, k
	cmp	eax, DWORD PTR 40[rbp]	 # tmp128, m
	jl	.L50	 #,
.LBE17:
 # main.cpp:152:             free(vec_row);
	.loc 2 152 17
	mov	rax, QWORD PTR -32[rbp]	 # tmp129, vec_row
	mov	rcx, rax	 #, tmp129
	call	free	 #
 # main.cpp:153:             free(vec_col);
	.loc 2 153 17
	mov	rax, QWORD PTR -40[rbp]	 # tmp130, vec_col
	mov	rcx, rax	 #, tmp130
	call	free	 #
.LBE16:
 # main.cpp:129:         for (int j = 0; j < n; j++)
	.loc 2 129 9 discriminator 2
	add	DWORD PTR -8[rbp], 1	 # j,
.L48:
 # main.cpp:129:         for (int j = 0; j < n; j++)
	.loc 2 129 27 discriminator 1
	mov	eax, DWORD PTR -8[rbp]	 # tmp131, j
	cmp	eax, DWORD PTR 48[rbp]	 # tmp131, n
	jl	.L51	 #,
.LBE15:
.LBE14:
 # main.cpp:128:     for (int i = 0; i < l; i++)
	.loc 2 128 5 discriminator 2
	add	DWORD PTR -4[rbp], 1	 # i,
.L47:
 # main.cpp:128:     for (int i = 0; i < l; i++)
	.loc 2 128 23 discriminator 1
	mov	eax, DWORD PTR -4[rbp]	 # tmp132, i
	cmp	eax, DWORD PTR 32[rbp]	 # tmp132, l
	jl	.L52	 #,
.LBE13:
 # main.cpp:155:     return mat_res;
	.loc 2 155 12
	mov	rax, QWORD PTR -24[rbp]	 # _36, mat_res
 # main.cpp:156: }
	.loc 2 156 1
	add	rsp, 96	 #,
	pop	rbp	 #
	.cfi_restore 6
	.cfi_def_cfa 7, 8
	ret	
	.cfi_endproc
.LFE2552:
	.seh_endproc
	.def	__main;	.scl	2;	.type	32;	.endef
	.globl	main
	.def	main;	.scl	2;	.type	32;	.endef
	.seh_proc	main
main:
.LFB2553:
	.loc 2 160 1
	.cfi_startproc
	push	rbp	 #
	.seh_pushreg	rbp
	.cfi_def_cfa_offset 16
	.cfi_offset 6, -16
	mov	rbp, rsp	 #,
	.seh_setframe	rbp, 0
	.cfi_def_cfa_register 6
	sub	rsp, 96	 #,
	.seh_stackalloc	96
	.seh_endprologue
 # main.cpp:160: {
	.loc 2 160 1
	call	__main	 #
 # main.cpp:162:     read_sizes(&l, &m, &n);
	.loc 2 162 15
	lea	rcx, -36[rbp]	 # tmp95,
	lea	rdx, -32[rbp]	 # tmp96,
	lea	rax, -28[rbp]	 # tmp97,
	mov	r8, rcx	 #, tmp95
	mov	rcx, rax	 #, tmp97
	call	_Z10read_sizesPiS_S_	 #
 # main.cpp:163:     float *mat1 = read_matrix(l, m, 1);
	.loc 2 163 30
	mov	edx, DWORD PTR -32[rbp]	 # m.10_1, m
	mov	eax, DWORD PTR -28[rbp]	 # l.11_2, l
	mov	r8d, 1	 #,
	mov	ecx, eax	 #, l.11_2
	call	_Z11read_matrixiii	 #
 # main.cpp:163:     float *mat1 = read_matrix(l, m, 1);
	.loc 2 163 30 is_stmt 0 discriminator 1
	mov	QWORD PTR -8[rbp], rax	 # mat1, _14
 # main.cpp:164:     float *mat2 = read_matrix(m, n, 2);
	.loc 2 164 30 is_stmt 1
	mov	edx, DWORD PTR -36[rbp]	 # n.12_3, n
	mov	eax, DWORD PTR -32[rbp]	 # m.13_4, m
	mov	r8d, 2	 #,
	mov	ecx, eax	 #, m.13_4
	call	_Z11read_matrixiii	 #
 # main.cpp:164:     float *mat2 = read_matrix(m, n, 2);
	.loc 2 164 30 is_stmt 0 discriminator 1
	mov	QWORD PTR -16[rbp], rax	 # mat2, _17
 # main.cpp:165:     float *mat_res = multy_matrix(mat1, mat2, l, m, n);
	.loc 2 165 34 is_stmt 1
	mov	ecx, DWORD PTR -36[rbp]	 # n.14_5, n
	mov	r9d, DWORD PTR -32[rbp]	 # m.15_6, m
	mov	r8d, DWORD PTR -28[rbp]	 # l.16_7, l
	mov	rdx, QWORD PTR -16[rbp]	 # tmp98, mat2
	mov	rax, QWORD PTR -8[rbp]	 # tmp99, mat1
	mov	DWORD PTR 32[rsp], ecx	 #, n.14_5
	mov	rcx, rax	 #, tmp99
	call	_Z12multy_matrixPfS_iii	 #
	mov	QWORD PTR -24[rbp], rax	 # mat_res, tmp100
 # main.cpp:166:     print_matrix(mat_res, l, n);
	.loc 2 166 17
	mov	ecx, DWORD PTR -36[rbp]	 # n.17_8, n
	mov	edx, DWORD PTR -28[rbp]	 # l.18_9, l
	mov	rax, QWORD PTR -24[rbp]	 # tmp101, mat_res
	mov	r8d, ecx	 #, n.17_8
	mov	rcx, rax	 #, tmp101
	call	_Z12print_matrixPfii	 #
 # main.cpp:167:     free(mat1);
	.loc 2 167 9
	mov	rax, QWORD PTR -8[rbp]	 # tmp102, mat1
	mov	rcx, rax	 #, tmp102
	call	free	 #
 # main.cpp:168:     free(mat2);
	.loc 2 168 9
	mov	rax, QWORD PTR -16[rbp]	 # tmp103, mat2
	mov	rcx, rax	 #, tmp103
	call	free	 #
 # main.cpp:169:     free(mat_res);
	.loc 2 169 9
	mov	rax, QWORD PTR -24[rbp]	 # tmp104, mat_res
	mov	rcx, rax	 #, tmp104
	call	free	 #
 # main.cpp:170: 	return OK;
	.loc 2 170 9
	mov	eax, 0	 # _25,
 # main.cpp:171: }
	.loc 2 171 1
	add	rsp, 96	 #,
	pop	rbp	 #
	.cfi_restore 6
	.cfi_def_cfa 7, 8
	ret	
	.cfi_endproc
.LFE2553:
	.seh_endproc
	.section .rdata,"dr"
_ZNSt8__detail30__integer_to_chars_is_unsignedIjEE:
	.byte	1
_ZNSt8__detail30__integer_to_chars_is_unsignedImEE:
	.byte	1
_ZNSt8__detail30__integer_to_chars_is_unsignedIyEE:
	.byte	1
	.text
.Letext0:
	.file 3 "C:/msys64/mingw64/x86_64-w64-mingw32/include/vadefs.h"
	.file 4 "C:/msys64/mingw64/x86_64-w64-mingw32/include/corecrt.h"
	.file 5 "C:/msys64/mingw64/x86_64-w64-mingw32/include/locale.h"
	.file 6 "C:/msys64/mingw64/x86_64-w64-mingw32/include/stdlib.h"
	.file 7 "C:/msys64/mingw64/include/c++/13.2.0/cstdlib"
	.file 8 "C:/msys64/mingw64/include/c++/13.2.0/bits/std_abs.h"
	.file 9 "C:/msys64/mingw64/include/c++/13.2.0/cwchar"
	.file 10 "C:/msys64/mingw64/include/c++/13.2.0/type_traits"
	.file 11 "C:/msys64/mingw64/include/c++/13.2.0/x86_64-w64-mingw32/bits/c++config.h"
	.file 12 "C:/msys64/mingw64/include/c++/13.2.0/bits/exception_ptr.h"
	.file 13 "C:/msys64/mingw64/include/c++/13.2.0/clocale"
	.file 14 "C:/msys64/mingw64/include/c++/13.2.0/debug/debug.h"
	.file 15 "C:/msys64/mingw64/include/c++/13.2.0/cstdio"
	.file 16 "C:/msys64/mingw64/include/c++/13.2.0/cstddef"
	.file 17 "C:/msys64/mingw64/include/c++/13.2.0/bits/memory_resource.h"
	.file 18 "C:/msys64/mingw64/include/c++/13.2.0/system_error"
	.file 19 "C:/msys64/mingw64/include/c++/13.2.0/cwctype"
	.file 20 "C:/msys64/mingw64/include/c++/13.2.0/bits/charconv.h"
	.file 21 "C:/msys64/mingw64/include/c++/13.2.0/bits/predefined_ops.h"
	.file 22 "C:/msys64/mingw64/include/c++/13.2.0/stdlib.h"
	.file 23 "C:/msys64/mingw64/x86_64-w64-mingw32/include/wchar.h"
	.file 24 "C:/msys64/mingw64/x86_64-w64-mingw32/include/swprintf.inl"
	.file 25 "C:/msys64/mingw64/x86_64-w64-mingw32/include/stddef.h"
	.file 26 "C:/msys64/mingw64/x86_64-w64-mingw32/include/wctype.h"
	.file 27 "C:/msys64/mingw64/lib/gcc/x86_64-w64-mingw32/13.2.0/include/xmmintrin.h"